target datalayout = "e-m:e-p270:32:32-p271:32:32-p272:64:64-i64:64-i128:128-f80:128-n8:16:32:64-S128"
target triple = "x86_64-pc-linux-gnu"

%class.ABstats = type { [8 x %"class.std::__cxx11::basic_string"], %struct.ABtracker, %struct.ABtracker, [2 x %struct.ABtracker], [8 x %struct.ABtracker] }
%"class.std::__cxx11::basic_string" = type { %"struct.std::__cxx11::basic_string<char>::_Alloc_hider", i64, %union.anon }
%"struct.std::__cxx11::basic_string<char>::_Alloc_hider" = type { ptr }
%union.anon = type { i64, [8 x i8] }
%struct.ABtracker = type { [49 x i32], i32, i32, i32, i32 }
%"struct.std::_Setw" = type { i32 }
%"struct.std::_Setprecision" = type { i32 }

@.str.14 = private unnamed_addr constant [2 x i8] c"\0A\00", align 1

; Function Attrs: mustprogress nounwind uwtable
define linkonce_odr i32 @_ZSt12setprecisioni(i32 noundef %0) #5 comdat {
  %2 = alloca %"struct.std::_Setprecision", align 4
  %3 = alloca i32, align 4
  store i32 %0, ptr %3, align 4
  %4 = getelementptr inbounds nuw %"struct.std::_Setprecision", ptr %2, i32 0, i32 0
  %5 = load i32, ptr %3, align 4
  store i32 %5, ptr %4, align 4
  %6 = getelementptr inbounds nuw %"struct.std::_Setprecision", ptr %2, i32 0, i32 0
  %7 = load i32, ptr %6, align 4
  ret i32 %7
}

; Function Attrs: mustprogress nounwind uwtable
define linkonce_odr i32 @_ZSt4setwi(i32 noundef %0) #5 comdat {
  %2 = alloca %"struct.std::_Setw", align 4
  %3 = alloca i32, align 4
  store i32 %0, ptr %3, align 4
  %4 = getelementptr inbounds nuw %"struct.std::_Setw", ptr %2, i32 0, i32 0
  %5 = load i32, ptr %3, align 4
  store i32 %5, ptr %4, align 4
  %6 = getelementptr inbounds nuw %"struct.std::_Setw", ptr %2, i32 0, i32 0
  %7 = load i32, ptr %6, align 4
  ret i32 %7
}

; Function Attrs: mustprogress uwtable
define void @_ZNK7ABstats15PrintStatsDepthERSt14basic_ofstreamIcSt11char_traitsIcEEii(ptr noundef nonnull align 8 dereferenceable(2800) %0, ptr noundef nonnull align 8 dereferenceable(248) %1, i32 noundef %2, i32 noundef %3) #4 align 2 {
  %5 = alloca ptr, align 8
  %6 = alloca ptr, align 8
  %7 = alloca i32, align 4
  %8 = alloca i32, align 4
  %9 = alloca %"struct.std::_Setw", align 4
  %10 = alloca %"struct.std::_Setw", align 4
  %11 = alloca %"struct.std::_Setw", align 4
  %12 = alloca %"struct.std::_Setw", align 4
  %13 = alloca %"struct.std::_Setprecision", align 4
  %14 = alloca %"struct.std::_Setw", align 4
  %15 = alloca %"struct.std::_Setprecision", align 4
  %16 = alloca %"struct.std::_Setw", align 4
  %17 = alloca %"struct.std::_Setprecision", align 4
  store ptr %0, ptr %5, align 8
  store ptr %1, ptr %6, align 8
  store i32 %2, ptr %7, align 4
  store i32 %3, ptr %8, align 4
  %18 = load ptr, ptr %5, align 8
  %19 = load ptr, ptr %6, align 8
  %20 = call i32 @_ZSt4setwi(i32 noundef 5)
  %21 = getelementptr inbounds nuw %"struct.std::_Setw", ptr %9, i32 0, i32 0
  store i32 %20, ptr %21, align 4
  %22 = getelementptr inbounds nuw %"struct.std::_Setw", ptr %9, i32 0, i32 0
  %23 = load i32, ptr %22, align 4
  %24 = call noundef nonnull align 8 dereferenceable(8) ptr @_ZStlsIcSt11char_traitsIcEERSt13basic_ostreamIT_T0_ES6_St5_Setw(ptr noundef nonnull align 8 dereferenceable(8) %19, i32 %23)
  %25 = load i32, ptr %7, align 4
  %26 = call noundef nonnull align 8 dereferenceable(8) ptr @_ZNSolsEi(ptr noundef nonnull align 8 dereferenceable(8) %24, i32 noundef %25)
  %27 = call i32 @_ZSt4setwi(i32 noundef 7)
  %28 = getelementptr inbounds nuw %"struct.std::_Setw", ptr %10, i32 0, i32 0
  store i32 %27, ptr %28, align 4
  %29 = getelementptr inbounds nuw %"struct.std::_Setw", ptr %10, i32 0, i32 0
  %30 = load i32, ptr %29, align 4
  %31 = call noundef nonnull align 8 dereferenceable(8) ptr @_ZStlsIcSt11char_traitsIcEERSt13basic_ostreamIT_T0_ES6_St5_Setw(ptr noundef nonnull align 8 dereferenceable(8) %26, i32 %30)
  %32 = getelementptr inbounds nuw %class.ABstats, ptr %18, i32 0, i32 1
  %33 = getelementptr inbounds nuw %struct.ABtracker, ptr %32, i32 0, i32 0
  %34 = load i32, ptr %7, align 4
  %35 = sext i32 %34 to i64
  %36 = getelementptr inbounds [49 x i32], ptr %33, i64 0, i64 %35
  %37 = load i32, ptr %36, align 4
  %38 = call noundef nonnull align 8 dereferenceable(8) ptr @_ZNSolsEi(ptr noundef nonnull align 8 dereferenceable(8) %31, i32 noundef %37)
  %39 = call i32 @_ZSt4setwi(i32 noundef 7)
  %40 = getelementptr inbounds nuw %"struct.std::_Setw", ptr %11, i32 0, i32 0
  store i32 %39, ptr %40, align 4
  %41 = getelementptr inbounds nuw %"struct.std::_Setw", ptr %11, i32 0, i32 0
  %42 = load i32, ptr %41, align 4
  %43 = call noundef nonnull align 8 dereferenceable(8) ptr @_ZStlsIcSt11char_traitsIcEERSt13basic_ostreamIT_T0_ES6_St5_Setw(ptr noundef nonnull align 8 dereferenceable(8) %38, i32 %42)
  %44 = getelementptr inbounds nuw %class.ABstats, ptr %18, i32 0, i32 2
  %45 = getelementptr inbounds nuw %struct.ABtracker, ptr %44, i32 0, i32 0
  %46 = load i32, ptr %7, align 4
  %47 = sext i32 %46 to i64
  %48 = getelementptr inbounds [49 x i32], ptr %45, i64 0, i64 %47
  %49 = load i32, ptr %48, align 4
  %50 = call noundef nonnull align 8 dereferenceable(8) ptr @_ZNSolsEi(ptr noundef nonnull align 8 dereferenceable(8) %43, i32 noundef %49)
  %51 = call i32 @_ZSt4setwi(i32 noundef 6)
  %52 = getelementptr inbounds nuw %"struct.std::_Setw", ptr %12, i32 0, i32 0
  store i32 %51, ptr %52, align 4
  %53 = getelementptr inbounds nuw %"struct.std::_Setw", ptr %12, i32 0, i32 0
  %54 = load i32, ptr %53, align 4
  %55 = call noundef nonnull align 8 dereferenceable(8) ptr @_ZStlsIcSt11char_traitsIcEERSt13basic_ostreamIT_T0_ES6_St5_Setw(ptr noundef nonnull align 8 dereferenceable(8) %50, i32 %54)
  %56 = call i32 @_ZSt12setprecisioni(i32 noundef 1)
  %57 = getelementptr inbounds nuw %"struct.std::_Setprecision", ptr %13, i32 0, i32 0
  store i32 %56, ptr %57, align 4
  %58 = getelementptr inbounds nuw %"struct.std::_Setprecision", ptr %13, i32 0, i32 0
  %59 = load i32, ptr %58, align 4
  %60 = call noundef nonnull align 8 dereferenceable(8) ptr @_ZStlsIcSt11char_traitsIcEERSt13basic_ostreamIT_T0_ES6_St13_Setprecision(ptr noundef nonnull align 8 dereferenceable(8) %55, i32 %59)
  %61 = call noundef nonnull align 8 dereferenceable(8) ptr @_ZNSolsEPFRSt8ios_baseS0_E(ptr noundef nonnull align 8 dereferenceable(8) %60, ptr noundef @_ZSt5fixedRSt8ios_base)
  %62 = getelementptr inbounds nuw %class.ABstats, ptr %18, i32 0, i32 2
  %63 = getelementptr inbounds nuw %struct.ABtracker, ptr %62, i32 0, i32 0
  %64 = load i32, ptr %7, align 4
  %65 = sext i32 %64 to i64
  %66 = getelementptr inbounds [49 x i32], ptr %63, i64 0, i64 %65
  %67 = load i32, ptr %66, align 4
  %68 = sitofp i32 %67 to double
  %69 = fmul double 1.000000e+02, %68
  %70 = getelementptr inbounds nuw %class.ABstats, ptr %18, i32 0, i32 2
  %71 = getelementptr inbounds nuw %struct.ABtracker, ptr %70, i32 0, i32 3
  %72 = load i32, ptr %71, align 4
  %73 = sitofp i32 %72 to double
  %74 = fdiv double %69, %73
  %75 = call noundef nonnull align 8 dereferenceable(8) ptr @_ZNSolsEd(ptr noundef nonnull align 8 dereferenceable(8) %61, double noundef %74)
  %76 = call i32 @_ZSt4setwi(i32 noundef 6)
  %77 = getelementptr inbounds nuw %"struct.std::_Setw", ptr %14, i32 0, i32 0
  store i32 %76, ptr %77, align 4
  %78 = getelementptr inbounds nuw %"struct.std::_Setw", ptr %14, i32 0, i32 0
  %79 = load i32, ptr %78, align 4
  %80 = call noundef nonnull align 8 dereferenceable(8) ptr @_ZStlsIcSt11char_traitsIcEERSt13basic_ostreamIT_T0_ES6_St5_Setw(ptr noundef nonnull align 8 dereferenceable(8) %75, i32 %79)
  %81 = call i32 @_ZSt12setprecisioni(i32 noundef 1)
  %82 = getelementptr inbounds nuw %"struct.std::_Setprecision", ptr %15, i32 0, i32 0
  store i32 %81, ptr %82, align 4
  %83 = getelementptr inbounds nuw %"struct.std::_Setprecision", ptr %15, i32 0, i32 0
  %84 = load i32, ptr %83, align 4
  %85 = call noundef nonnull align 8 dereferenceable(8) ptr @_ZStlsIcSt11char_traitsIcEERSt13basic_ostreamIT_T0_ES6_St13_Setprecision(ptr noundef nonnull align 8 dereferenceable(8) %80, i32 %84)
  %86 = call noundef nonnull align 8 dereferenceable(8) ptr @_ZNSolsEPFRSt8ios_baseS0_E(ptr noundef nonnull align 8 dereferenceable(8) %85, ptr noundef @_ZSt5fixedRSt8ios_base)
  %87 = load i32, ptr %8, align 4
  %88 = sitofp i32 %87 to double
  %89 = fmul double 1.000000e+02, %88
  %90 = getelementptr inbounds nuw %class.ABstats, ptr %18, i32 0, i32 2
  %91 = getelementptr inbounds nuw %struct.ABtracker, ptr %90, i32 0, i32 3
  %92 = load i32, ptr %91, align 4
  %93 = sitofp i32 %92 to double
  %94 = fdiv double %89, %93
  %95 = call noundef nonnull align 8 dereferenceable(8) ptr @_ZNSolsEd(ptr noundef nonnull align 8 dereferenceable(8) %86, double noundef %94)
  %96 = load i32, ptr %7, align 4
  %97 = srem i32 %96, 4
  %98 = icmp eq i32 %97, 1
  br i1 %98, label %99, label %141

99:                                               ; preds = %4
  %100 = load i32, ptr %7, align 4
  %101 = icmp slt i32 %100, 45
  br i1 %101, label %102, label %141

102:                                              ; preds = %99
  %103 = getelementptr inbounds nuw %class.ABstats, ptr %18, i32 0, i32 2
  %104 = getelementptr inbounds nuw %struct.ABtracker, ptr %103, i32 0, i32 0
  %105 = load i32, ptr %7, align 4
  %106 = add nsw i32 %105, 4
  %107 = sext i32 %106 to i64
  %108 = getelementptr inbounds [49 x i32], ptr %104, i64 0, i64 %107
  %109 = load i32, ptr %108, align 4
  %110 = icmp sgt i32 %109, 0
  br i1 %110, label %111, label %141

111:                                              ; preds = %102
  %112 = load ptr, ptr %6, align 8
  %113 = call i32 @_ZSt4setwi(i32 noundef 6)
  %114 = getelementptr inbounds nuw %"struct.std::_Setw", ptr %16, i32 0, i32 0
  store i32 %113, ptr %114, align 4
  %115 = getelementptr inbounds nuw %"struct.std::_Setw", ptr %16, i32 0, i32 0
  %116 = load i32, ptr %115, align 4
  %117 = call noundef nonnull align 8 dereferenceable(8) ptr @_ZStlsIcSt11char_traitsIcEERSt13basic_ostreamIT_T0_ES6_St5_Setw(ptr noundef nonnull align 8 dereferenceable(8) %112, i32 %116)
  %118 = call i32 @_ZSt12setprecisioni(i32 noundef 2)
  %119 = getelementptr inbounds nuw %"struct.std::_Setprecision", ptr %17, i32 0, i32 0
  store i32 %118, ptr %119, align 4
  %120 = getelementptr inbounds nuw %"struct.std::_Setprecision", ptr %17, i32 0, i32 0
  %121 = load i32, ptr %120, align 4
  %122 = call noundef nonnull align 8 dereferenceable(8) ptr @_ZStlsIcSt11char_traitsIcEERSt13basic_ostreamIT_T0_ES6_St13_Setprecision(ptr noundef nonnull align 8 dereferenceable(8) %117, i32 %121)
  %123 = call noundef nonnull align 8 dereferenceable(8) ptr @_ZNSolsEPFRSt8ios_baseS0_E(ptr noundef nonnull align 8 dereferenceable(8) %122, ptr noundef @_ZSt5fixedRSt8ios_base)
  %124 = getelementptr inbounds nuw %class.ABstats, ptr %18, i32 0, i32 2
  %125 = getelementptr inbounds nuw %struct.ABtracker, ptr %124, i32 0, i32 0
  %126 = load i32, ptr %7, align 4
  %127 = sext i32 %126 to i64
  %128 = getelementptr inbounds [49 x i32], ptr %125, i64 0, i64 %127
  %129 = load i32, ptr %128, align 4
  %130 = sitofp i32 %129 to double
  %131 = getelementptr inbounds nuw %class.ABstats, ptr %18, i32 0, i32 2
  %132 = getelementptr inbounds nuw %struct.ABtracker, ptr %131, i32 0, i32 0
  %133 = load i32, ptr %7, align 4
  %134 = add nsw i32 %133, 4
  %135 = sext i32 %134 to i64
  %136 = getelementptr inbounds [49 x i32], ptr %132, i64 0, i64 %135
  %137 = load i32, ptr %136, align 4
  %138 = sitofp i32 %137 to double
  %139 = fdiv double %130, %138
  %140 = call noundef nonnull align 8 dereferenceable(8) ptr @_ZNSolsEd(ptr noundef nonnull align 8 dereferenceable(8) %123, double noundef %139)
  br label %141

141:                                              ; preds = %111, %102, %99, %4
  %142 = load ptr, ptr %6, align 8
  %143 = call noundef nonnull align 8 dereferenceable(8) ptr @_ZStlsISt11char_traitsIcEERSt13basic_ostreamIcT_ES5_PKc(ptr noundef nonnull align 8 dereferenceable(8) %142, ptr noundef @.str.14)
  ret void
}